; Function Attrs: mustprogress nofree norecurse nosync nounwind sspstrong willreturn memory(read, inaccessiblemem: none) uwtable
define hidden zeroext i1 @rb_get_iseq_flags_forwardable(ptr noundef readonly captures(none) %0) local_unnamed_addr #4 {
  %2 = getelementptr inbounds nuw i8, ptr %0, i64 16
  %3 = load ptr, ptr %2, align 8, !tbaa !94
  %4 = getelementptr inbounds nuw i8, ptr %3, i64 16
  %5 = load i16, ptr %4, align 8
  %6 = and i16 %5, 8192
  %7 = icmp ne i16 %6, 0
  ret i1 %7
}